; Function Attrs: nounwind uwtable
define void @cleanUpTestTree(ptr noundef captures(none) %0) local_unnamed_addr #0 {
  %2 = getelementptr inbounds nuw i8, ptr %0, i64 16
  %3 = load ptr, ptr %2, align 8, !tbaa !3
  %.not = icmp eq ptr %3, null
  br i1 %.not, label %5, label %4

4:                                                ; preds = %1
  tail call void @cleanUpTestTree(ptr noundef nonnull %3)
  br label %5

5:                                                ; preds = %4, %1
  %6 = getelementptr inbounds nuw i8, ptr %0, i64 8
  %7 = load ptr, ptr %6, align 8, !tbaa !9
  %.not6 = icmp eq ptr %7, null
  br i1 %.not6, label %9, label %8

8:                                                ; preds = %5
  tail call void @cleanUpTestTree(ptr noundef nonnull %7)
  br label %9

9:                                                ; preds = %8, %5
  tail call void @free(ptr noundef nonnull %0) #23
  ret void
}